; Function Attrs: mustprogress uwtable
define void @_ZN8facebook5velox6memory13MmapAllocator14freeContiguousERNS1_20ContiguousAllocationE(ptr noundef nonnull align 8 dereferenceable(1080) %this, ptr noundef nonnull align 8 dereferenceable(32) %allocation) unnamed_addr #0 align 2 personality ptr @__gxx_personality_v0 {
entry:
  %stats_ = getelementptr inbounds i8, ptr %this, i64 72
  %size_.i = getelementptr inbounds i8, ptr %allocation, i64 16
  %0 = load i64, ptr %size_.i, align 8
  %1 = load i8, ptr @_ZN3fLB28FLAGS_velox_time_allocationsE, align 1
  %2 = and i8 %1, 1
  %tobool.not.i = icmp eq i8 %2, 0
  br i1 %tobool.not.i, label %if.else.i, label %if.then.i

if.then.i:                                        ; preds = %entry
  %cmp.i.i = icmp eq i64 %0, 0
  br i1 %cmp.i.i, label %_ZN8facebook5velox6memory5Stats9sizeIndexEl.exit.i, label %if.end.i.i

if.end.i.i:                                       ; preds = %if.then.i
  %cmp.i.i.i = icmp ult i64 %0, 4096
  br i1 %cmp.i.i.i, label %_ZN8facebook5velox4bits14nextPowerOfTwoEm.exit.i.i, label %if.end.i.i.i

if.end.i.i.i:                                     ; preds = %if.end.i.i
  %div2.i.i = lshr i64 %0, 12
  %3 = tail call i64 @llvm.ctlz.i64(i64 %div2.i.i, i1 true), !range !25
  %sub.i.i.i = xor i64 %3, 63
  %shl.i.i.i = shl nuw nsw i64 1, %sub.i.i.i
  %cmp1.i.i.i = icmp eq i64 %shl.i.i.i, %div2.i.i
  %mul.i.i.i = shl nuw nsw i64 2, %sub.i.i.i
  %spec.select.i.i.i = select i1 %cmp1.i.i.i, i64 %div2.i.i, i64 %mul.i.i.i
  br label %_ZN8facebook5velox4bits14nextPowerOfTwoEm.exit.i.i

_ZN8facebook5velox4bits14nextPowerOfTwoEm.exit.i.i: ; preds = %if.end.i.i.i, %if.end.i.i
  %retval.0.i.i.i = phi i64 [ 0, %if.end.i.i ], [ %spec.select.i.i.i, %if.end.i.i.i ]
  %4 = tail call i64 @llvm.ctlz.i64(i64 %retval.0.i.i.i, i1 false), !range !25
  %cast.i.i.i = trunc i64 %4 to i32
  %sub.i.i = sub nsw i32 63, %cast.i.i.i
  %.sroa.speculated.i.i = tail call i32 @llvm.smin.i32(i32 %sub.i.i, i32 19)
  %5 = sext i32 %.sroa.speculated.i.i to i64
  br label %_ZN8facebook5velox6memory5Stats9sizeIndexEl.exit.i

_ZN8facebook5velox6memory5Stats9sizeIndexEl.exit.i: ; preds = %_ZN8facebook5velox4bits14nextPowerOfTwoEm.exit.i.i, %if.then.i
  %retval.0.i.i = phi i64 [ %5, %_ZN8facebook5velox4bits14nextPowerOfTwoEm.exit.i.i ], [ 0, %if.then.i ]
  %freeClocks.i = getelementptr inbounds [20 x %"struct.facebook::velox::memory::SizeClassStats"], ptr %stats_, i64 0, i64 %retval.0.i.i, i32 2
  %6 = tail call noundef i64 @llvm.x86.rdtsc()
  invoke void @_ZN8facebook5velox6memory13MmapAllocator18freeContiguousImplERNS1_20ContiguousAllocationE(ptr noundef nonnull align 8 dereferenceable(1080) %this, ptr noundef nonnull align 8 dereferenceable(32) %allocation)
          to label %_ZN8facebook5velox10ClockTimerD2Ev.exit.i unwind label %_ZN8facebook5velox10ClockTimerD2Ev.exit16.i

_ZN8facebook5velox10ClockTimerD2Ev.exit.i:        ; preds = %_ZN8facebook5velox6memory5Stats9sizeIndexEl.exit.i
  %7 = tail call noundef i64 @llvm.x86.rdtsc()
  %sub.i5.i = sub i64 %7, %6
  %8 = atomicrmw add ptr %freeClocks.i, i64 %sub.i5.i seq_cst, align 8
  br label %"_ZN8facebook5velox6memory5Stats10recordFreeIZNS1_13MmapAllocator14freeContiguousERNS1_20ContiguousAllocationEE3$_0EEvlT_.exit"

_ZN8facebook5velox10ClockTimerD2Ev.exit16.i:      ; preds = %_ZN8facebook5velox6memory5Stats9sizeIndexEl.exit.i
  %9 = landingpad { ptr, i32 }
          cleanup
  %10 = tail call noundef i64 @llvm.x86.rdtsc()
  %sub.i9.i = sub i64 %10, %6
  %11 = atomicrmw add ptr %freeClocks.i, i64 %sub.i9.i seq_cst, align 8
  resume { ptr, i32 } %9

if.else.i:                                        ; preds = %entry
  tail call void @_ZN8facebook5velox6memory13MmapAllocator18freeContiguousImplERNS1_20ContiguousAllocationE(ptr noundef nonnull align 8 dereferenceable(1080) %this, ptr noundef nonnull align 8 dereferenceable(32) %allocation)
  br label %"_ZN8facebook5velox6memory5Stats10recordFreeIZNS1_13MmapAllocator14freeContiguousERNS1_20ContiguousAllocationEE3$_0EEvlT_.exit"

"_ZN8facebook5velox6memory5Stats10recordFreeIZNS1_13MmapAllocator14freeContiguousERNS1_20ContiguousAllocationEE3$_0EEvlT_.exit": ; preds = %_ZN8facebook5velox10ClockTimerD2Ev.exit.i, %if.else.i
  ret void
}